; ModuleID = '60/238.c'
source_filename = "60/238.c"
target datalayout = "e-m:e-p270:32:32-p271:32:32-p272:64:64-i64:64-f80:128-n8:16:32:64-S128"
target triple = "x86_64-pc-linux-gnu"

@.str = private unnamed_addr constant [3 x i8] c"%d\00", align 1
@.str.1 = private unnamed_addr constant [6 x i8] c"empty\00", align 1
@.str.2 = private unnamed_addr constant [7 x i8] c"%d %d\0A\00", align 1

; Function Attrs: noinline nounwind uwtable
define dso_local i32 @main() #0 {
  %1 = alloca i32, align 4
  %2 = alloca i32, align 4
  %3 = alloca i32, align 4
  %4 = alloca i32, align 4
  %5 = alloca i32, align 4
  %6 = alloca i32, align 4
  %7 = alloca i32, align 4
  %8 = alloca i32, align 4
  %9 = alloca [2500 x i64], align 16
  store i32 0, i32* %1, align 4
  store i32 0, i32* %6, align 4
  %10 = call i32 (i8*, ...) @__isoc99_scanf(i8* getelementptr inbounds ([3 x i8], [3 x i8]* @.str, i64 0, i64 0), i32* %2)
  %11 = load i32, i32* %2, align 4
  %12 = icmp slt i32 %11, 5
  br i1 %12, label %13, label %15

13:                                               ; preds = %0
  %14 = call i32 (i8*, ...) @printf(i8* getelementptr inbounds ([6 x i8], [6 x i8]* @.str.1, i64 0, i64 0))
  br label %88

15:                                               ; preds = %0
  store i32 3, i32* %3, align 4
  br label %16

16:                                               ; preds = %53, %15
  %17 = load i32, i32* %3, align 4
  %18 = load i32, i32* %2, align 4
  %19 = icmp sle i32 %17, %18
  br i1 %19, label %20, label %56

20:                                               ; preds = %16
  store i32 0, i32* %8, align 4
  %21 = load i32, i32* %3, align 4
  %22 = sitofp i32 %21 to double
  %23 = call double @sqrt(double %22) #3
  %24 = fptosi double %23 to i32
  store i32 %24, i32* %4, align 4
  store i32 2, i32* %5, align 4
  br label %25

25:                                               ; preds = %38, %20
  %26 = load i32, i32* %5, align 4
  %27 = load i32, i32* %4, align 4
  %28 = icmp sle i32 %26, %27
  br i1 %28, label %29, label %41

29:                                               ; preds = %25
  %30 = load i32, i32* %3, align 4
  %31 = load i32, i32* %5, align 4
  %32 = srem i32 %30, %31
  %33 = icmp eq i32 %32, 0
  br i1 %33, label %34, label %37

34:                                               ; preds = %29
  %35 = load i32, i32* %8, align 4
  %36 = add nsw i32 %35, 1
  store i32 %36, i32* %8, align 4
  br label %37

37:                                               ; preds = %34, %29
  br label %38

38:                                               ; preds = %37
  %39 = load i32, i32* %5, align 4
  %40 = add nsw i32 %39, 1
  store i32 %40, i32* %5, align 4
  br label %25

41:                                               ; preds = %25
  %42 = load i32, i32* %8, align 4
  %43 = icmp eq i32 %42, 0
  br i1 %43, label %44, label %52

44:                                               ; preds = %41
  %45 = load i32, i32* %3, align 4
  %46 = sext i32 %45 to i64
  %47 = load i32, i32* %6, align 4
  %48 = sext i32 %47 to i64
  %49 = getelementptr inbounds [2500 x i64], [2500 x i64]* %9, i64 0, i64 %48
  store i64 %46, i64* %49, align 8
  %50 = load i32, i32* %6, align 4
  %51 = add nsw i32 %50, 1
  store i32 %51, i32* %6, align 4
  br label %52

52:                                               ; preds = %44, %41
  br label %53

53:                                               ; preds = %52
  %54 = load i32, i32* %3, align 4
  %55 = add nsw i32 %54, 1
  store i32 %55, i32* %3, align 4
  br label %16

56:                                               ; preds = %16
  store i32 1, i32* %7, align 4
  br label %57

57:                                               ; preds = %84, %56
  %58 = load i32, i32* %7, align 4
  %59 = icmp sle i32 %58, 2500
  br i1 %59, label %60, label %87

60:                                               ; preds = %57
  %61 = load i32, i32* %7, align 4
  %62 = sext i32 %61 to i64
  %63 = getelementptr inbounds [2500 x i64], [2500 x i64]* %9, i64 0, i64 %62
  %64 = load i64, i64* %63, align 8
  %65 = load i32, i32* %7, align 4
  %66 = sub nsw i32 %65, 1
  %67 = sext i32 %66 to i64
  %68 = getelementptr inbounds [2500 x i64], [2500 x i64]* %9, i64 0, i64 %67
  %69 = load i64, i64* %68, align 8
  %70 = sub nsw i64 %64, %69
  %71 = icmp eq i64 %70, 2
  br i1 %71, label %72, label %83

72:                                               ; preds = %60
  %73 = load i32, i32* %7, align 4
  %74 = sub nsw i32 %73, 1
  %75 = sext i32 %74 to i64
  %76 = getelementptr inbounds [2500 x i64], [2500 x i64]* %9, i64 0, i64 %75
  %77 = load i64, i64* %76, align 8
  %78 = load i32, i32* %7, align 4
  %79 = sext i32 %78 to i64
  %80 = getelementptr inbounds [2500 x i64], [2500 x i64]* %9, i64 0, i64 %79
  %81 = load i64, i64* %80, align 8
  %82 = call i32 (i8*, ...) @printf(i8* getelementptr inbounds ([7 x i8], [7 x i8]* @.str.2, i64 0, i64 0), i64 %77, i64 %81)
  br label %83

83:                                               ; preds = %72, %60
  br label %84

84:                                               ; preds = %83
  %85 = load i32, i32* %7, align 4
  %86 = add nsw i32 %85, 1
  store i32 %86, i32* %7, align 4
  br label %57

87:                                               ; preds = %57
  br label %88

88:                                               ; preds = %87, %13
  %89 = call i32 @getchar()
  %90 = call i32 @getchar()
  %91 = load i32, i32* %1, align 4
  ret i32 %91
}

declare dso_local i32 @__isoc99_scanf(i8*, ...) #1

declare dso_local i32 @printf(i8*, ...) #1

; Function Attrs: nounwind
declare dso_local double @sqrt(double) #2

declare dso_local i32 @getchar() #1


!llvm.module.flags = !{!0}
!llvm.ident = !{!1}

!0 = !{i32 1, !"wchar_size", i32 4}
!1 = !{!"clang version 10.0.0-4ubuntu1 "}
